target datalayout = "e-m:e-p270:32:32-p271:32:32-p272:64:64-i64:64-i128:128-f80:128-n8:16:32:64-S128"
target triple = "x86_64-unknown-linux-gnu"

@_ZN18OpenImageIO_v2_6_09PNGOutputC1Ev = hidden unnamed_addr alias void (ptr), ptr @_ZN18OpenImageIO_v2_6_09PNGOutputC2Ev

; Function Attrs: mustprogress uwtable
define noundef ptr @_ZN18OpenImageIO_v2_6_025png_output_imageio_createEv() #6 personality ptr @__gxx_personality_v0 {
entry:
  %exn.slot = alloca ptr, align 8
  %ehselector.slot = alloca i32, align 4
  %call = call noundef ptr @_ZN18OpenImageIO_v2_6_011ImageOutputnwEm(i64 noundef 328)
  invoke void @_ZN18OpenImageIO_v2_6_09PNGOutputC1Ev(ptr noundef nonnull align 8 dereferenceable(328) %call)
          to label %invoke.cont unwind label %lpad

invoke.cont:                                      ; preds = %entry
  ret ptr %call

lpad:                                             ; preds = %entry
  %0 = landingpad { ptr, i32 }
          cleanup
  %1 = extractvalue { ptr, i32 } %0, 0
  store ptr %1, ptr %exn.slot, align 8
  %2 = extractvalue { ptr, i32 } %0, 1
  store i32 %2, ptr %ehselector.slot, align 4
  call void @_ZN18OpenImageIO_v2_6_011ImageOutputdlEPv(ptr noundef %call) #3
  br label %eh.resume

eh.resume:                                        ; preds = %lpad
  %exn = load ptr, ptr %exn.slot, align 8
  %sel = load i32, ptr %ehselector.slot, align 4
  %lpad.val = insertvalue { ptr, i32 } poison, ptr %exn, 0
  %lpad.val1 = insertvalue { ptr, i32 } %lpad.val, i32 %sel, 1
  resume { ptr, i32 } %lpad.val1
}